target datalayout = "e-m:e-p270:32:32-p271:32:32-p272:64:64-i64:64-i128:128-f80:128-n8:16:32:64-S128"
target triple = "x86_64-pc-linux-gnu"

%struct.compiler_common = type { ptr, ptr, ptr, ptr, ptr, ptr, ptr, ptr, i32, i32, i32, i32, i32, i32, i32, i32, i32, i32, i32, ptr, i32, i32, i32, ptr, ptr, i64, i32, i32, i32, i32, i32, i32, i32, i32, i32, i32, i32, i32, i32, i32, i32, i32, i32, i64, ptr, i64, i64, ptr, ptr, ptr, ptr, ptr, ptr, ptr, ptr, ptr, ptr, ptr, ptr, ptr, ptr, ptr, ptr, ptr, ptr, ptr, ptr, ptr, ptr, ptr, ptr, ptr, ptr, i32, i32, i32, i32, i32, i32, ptr, ptr, ptr, ptr, ptr, ptr, ptr, ptr, ptr }

; Function Attrs: nounwind uwtable
define internal ptr @bracketend(ptr noundef %0) #0 {
  %2 = alloca ptr, align 8
  store ptr %0, ptr %2, align 8
  br label %3

3:                                                ; preds = %1
  br label %4

4:                                                ; preds = %3
  br label %5

5:                                                ; preds = %19, %4
  %6 = load ptr, ptr %2, align 8
  %7 = getelementptr inbounds i8, ptr %6, i64 1
  %8 = load i8, ptr %7, align 1
  %9 = zext i8 %8 to i32
  %10 = shl i32 %9, 8
  %11 = load ptr, ptr %2, align 8
  %12 = getelementptr inbounds i8, ptr %11, i64 2
  %13 = load i8, ptr %12, align 1
  %14 = zext i8 %13 to i32
  %15 = or i32 %10, %14
  %16 = load ptr, ptr %2, align 8
  %17 = zext i32 %15 to i64
  %18 = getelementptr inbounds i8, ptr %16, i64 %17
  store ptr %18, ptr %2, align 8
  br label %19

19:                                               ; preds = %5
  %20 = load ptr, ptr %2, align 8
  %21 = load i8, ptr %20, align 1
  %22 = zext i8 %21 to i32
  %23 = icmp eq i32 %22, 120
  br i1 %23, label %5, label %24

24:                                               ; preds = %19
  br label %25

25:                                               ; preds = %24
  br label %26

26:                                               ; preds = %25
  %27 = load ptr, ptr %2, align 8
  %28 = getelementptr inbounds i8, ptr %27, i64 3
  store ptr %28, ptr %2, align 8
  %29 = load ptr, ptr %2, align 8
  ret ptr %29
}

; Function Attrs: nounwind uwtable
define internal ptr @set_then_offsets(ptr noundef %0, ptr noundef %1, ptr noundef %2) #0 {
  %4 = alloca ptr, align 8
  %5 = alloca ptr, align 8
  %6 = alloca ptr, align 8
  %7 = alloca ptr, align 8
  %8 = alloca i32, align 4
  store ptr %0, ptr %4, align 8
  store ptr %1, ptr %5, align 8
  store ptr %2, ptr %6, align 8
  %9 = load ptr, ptr %5, align 8
  %10 = call ptr @bracketend(ptr noundef %9)
  store ptr %10, ptr %7, align 8
  %11 = load ptr, ptr %5, align 8
  %12 = load ptr, ptr %5, align 8
  %13 = getelementptr inbounds i8, ptr %12, i64 1
  %14 = load i8, ptr %13, align 1
  %15 = zext i8 %14 to i32
  %16 = shl i32 %15, 8
  %17 = load ptr, ptr %5, align 8
  %18 = getelementptr inbounds i8, ptr %17, i64 2
  %19 = load i8, ptr %18, align 1
  %20 = zext i8 %19 to i32
  %21 = or i32 %16, %20
  %22 = zext i32 %21 to i64
  %23 = getelementptr inbounds i8, ptr %11, i64 %22
  %24 = load i8, ptr %23, align 1
  %25 = zext i8 %24 to i32
  %26 = icmp eq i32 %25, 120
  %27 = zext i1 %26 to i32
  store i32 %27, ptr %8, align 4
  %28 = load ptr, ptr %5, align 8
  %29 = load i8, ptr %28, align 1
  %30 = zext i8 %29 to i32
  %31 = icmp sge i32 %30, 127
  br i1 %31, label %32, label %38

32:                                               ; preds = %3
  %33 = load ptr, ptr %5, align 8
  %34 = load i8, ptr %33, align 1
  %35 = zext i8 %34 to i32
  %36 = icmp sle i32 %35, 132
  br i1 %36, label %37, label %38

37:                                               ; preds = %32
  store ptr null, ptr %6, align 8
  br label %38

38:                                               ; preds = %37, %32, %3
  %39 = load ptr, ptr %5, align 8
  %40 = load i8, ptr %39, align 1
  %41 = zext i8 %40 to i32
  %42 = icmp eq i32 %41, 139
  br i1 %42, label %48, label %43

43:                                               ; preds = %38
  %44 = load ptr, ptr %5, align 8
  %45 = load i8, ptr %44, align 1
  %46 = zext i8 %45 to i32
  %47 = icmp eq i32 %46, 144
  br i1 %47, label %48, label %49

48:                                               ; preds = %43, %38
  store i32 0, ptr %8, align 4
  br label %49

49:                                               ; preds = %48, %43
  %50 = load ptr, ptr %4, align 8
  %51 = load ptr, ptr %5, align 8
  %52 = call ptr @next_opcode(ptr noundef %50, ptr noundef %51)
  store ptr %52, ptr %5, align 8
  %53 = load i32, ptr %8, align 4
  %54 = icmp ne i32 %53, 0
  br i1 %54, label %55, label %84

55:                                               ; preds = %49
  %56 = load ptr, ptr %5, align 8
  %57 = load i8, ptr %56, align 1
  %58 = zext i8 %57 to i32
  %59 = icmp eq i32 %58, 125
  br i1 %59, label %60, label %63

60:                                               ; preds = %55
  %61 = load ptr, ptr %5, align 8
  %62 = getelementptr inbounds i8, ptr %61, i64 3
  store ptr %62, ptr %5, align 8
  br label %72

63:                                               ; preds = %55
  %64 = load ptr, ptr %5, align 8
  %65 = load i8, ptr %64, align 1
  %66 = zext i8 %65 to i32
  %67 = icmp eq i32 %66, 126
  br i1 %67, label %68, label %71

68:                                               ; preds = %63
  %69 = load ptr, ptr %5, align 8
  %70 = getelementptr inbounds i8, ptr %69, i64 5
  store ptr %70, ptr %5, align 8
  br label %71

71:                                               ; preds = %68, %63
  br label %72

72:                                               ; preds = %71, %60
  %73 = load ptr, ptr %4, align 8
  %74 = getelementptr inbounds %struct.compiler_common, ptr %73, i32 0, i32 6
  %75 = load ptr, ptr %74, align 8
  %76 = load ptr, ptr %5, align 8
  %77 = load ptr, ptr %4, align 8
  %78 = getelementptr inbounds %struct.compiler_common, ptr %77, i32 0, i32 2
  %79 = load ptr, ptr %78, align 8
  %80 = ptrtoint ptr %76 to i64
  %81 = ptrtoint ptr %79 to i64
  %82 = sub i64 %80, %81
  %83 = getelementptr inbounds i8, ptr %75, i64 %82
  store ptr %83, ptr %6, align 8
  br label %84

84:                                               ; preds = %72, %49
  br label %85

85:                                               ; preds = %172, %141, %84
  %86 = load ptr, ptr %5, align 8
  %87 = load ptr, ptr %7, align 8
  %88 = icmp ult ptr %86, %87
  br i1 %88, label %89, label %173

89:                                               ; preds = %85
  %90 = load ptr, ptr %5, align 8
  %91 = load i8, ptr %90, align 1
  %92 = zext i8 %91 to i32
  %93 = icmp sge i32 %92, 127
  br i1 %93, label %94, label %99

94:                                               ; preds = %89
  %95 = load ptr, ptr %5, align 8
  %96 = load i8, ptr %95, align 1
  %97 = zext i8 %96 to i32
  %98 = icmp sle i32 %97, 132
  br i1 %98, label %109, label %99

99:                                               ; preds = %94, %89
  %100 = load ptr, ptr %5, align 8
  %101 = load i8, ptr %100, align 1
  %102 = zext i8 %101 to i32
  %103 = icmp sge i32 %102, 133
  br i1 %103, label %104, label %114

104:                                              ; preds = %99
  %105 = load ptr, ptr %5, align 8
  %106 = load i8, ptr %105, align 1
  %107 = zext i8 %106 to i32
  %108 = icmp sle i32 %107, 144
  br i1 %108, label %109, label %114

109:                                              ; preds = %104, %94
  %110 = load ptr, ptr %4, align 8
  %111 = load ptr, ptr %5, align 8
  %112 = load ptr, ptr %6, align 8
  %113 = call ptr @set_then_offsets(ptr noundef %110, ptr noundef %111, ptr noundef %112)
  store ptr %113, ptr %5, align 8
  br label %172

114:                                              ; preds = %104, %99
  %115 = load ptr, ptr %5, align 8
  %116 = load i8, ptr %115, align 1
  %117 = zext i8 %116 to i32
  %118 = icmp eq i32 %117, 120
  br i1 %118, label %119, label %153

119:                                              ; preds = %114
  %120 = load i32, ptr %8, align 4
  %121 = icmp ne i32 %120, 0
  br i1 %121, label %122, label %153

122:                                              ; preds = %119
  %123 = load ptr, ptr %5, align 8
  %124 = getelementptr inbounds i8, ptr %123, i64 3
  store ptr %124, ptr %5, align 8
  %125 = load ptr, ptr %5, align 8
  %126 = load i8, ptr %125, align 1
  %127 = zext i8 %126 to i32
  %128 = icmp eq i32 %127, 125
  br i1 %128, label %129, label %132

129:                                              ; preds = %122
  %130 = load ptr, ptr %5, align 8
  %131 = getelementptr inbounds i8, ptr %130, i64 3
  store ptr %131, ptr %5, align 8
  br label %141

132:                                              ; preds = %122
  %133 = load ptr, ptr %5, align 8
  %134 = load i8, ptr %133, align 1
  %135 = zext i8 %134 to i32
  %136 = icmp eq i32 %135, 126
  br i1 %136, label %137, label %140

137:                                              ; preds = %132
  %138 = load ptr, ptr %5, align 8
  %139 = getelementptr inbounds i8, ptr %138, i64 5
  store ptr %139, ptr %5, align 8
  br label %140

140:                                              ; preds = %137, %132
  br label %141

141:                                              ; preds = %140, %129
  %142 = load ptr, ptr %4, align 8
  %143 = getelementptr inbounds %struct.compiler_common, ptr %142, i32 0, i32 6
  %144 = load ptr, ptr %143, align 8
  %145 = load ptr, ptr %5, align 8
  %146 = load ptr, ptr %4, align 8
  %147 = getelementptr inbounds %struct.compiler_common, ptr %146, i32 0, i32 2
  %148 = load ptr, ptr %147, align 8
  %149 = ptrtoint ptr %145 to i64
  %150 = ptrtoint ptr %148 to i64
  %151 = sub i64 %149, %150
  %152 = getelementptr inbounds i8, ptr %144, i64 %151
  store ptr %152, ptr %6, align 8
  br label %85

153:                                              ; preds = %119, %114
  %154 = load ptr, ptr %5, align 8
  %155 = load i8, ptr %154, align 1
  %156 = zext i8 %155 to i32
  %157 = icmp sge i32 %156, 159
  br i1 %157, label %158, label %168

158:                                              ; preds = %153
  %159 = load ptr, ptr %5, align 8
  %160 = load i8, ptr %159, align 1
  %161 = zext i8 %160 to i32
  %162 = icmp sle i32 %161, 160
  br i1 %162, label %163, label %168

163:                                              ; preds = %158
  %164 = load ptr, ptr %6, align 8
  %165 = icmp ne ptr %164, null
  br i1 %165, label %166, label %168

166:                                              ; preds = %163
  %167 = load ptr, ptr %6, align 8
  store i8 1, ptr %167, align 1
  br label %168

168:                                              ; preds = %166, %163, %158, %153
  %169 = load ptr, ptr %4, align 8
  %170 = load ptr, ptr %5, align 8
  %171 = call ptr @next_opcode(ptr noundef %169, ptr noundef %170)
  store ptr %171, ptr %5, align 8
  br label %172

172:                                              ; preds = %168, %109
  br label %85

173:                                              ; preds = %85
  %174 = load ptr, ptr %7, align 8
  ret ptr %174
}