; Function Attrs: nofree nosync nounwind memory(readwrite, inaccessiblemem: none) uwtable
define internal fastcc nonnull ptr @set_then_offsets(ptr nocapture noundef readonly %0, ptr noundef %1, ptr noundef %2) unnamed_addr #7 {
  br label %4

4:                                                ; preds = %4, %3
  %.0.i = phi ptr [ %1, %3 ], [ %13, %4 ]
  %5 = getelementptr inbounds i8, ptr %.0.i, i64 1
  %6 = load i8, ptr %5, align 1
  %7 = zext i8 %6 to i64
  %8 = shl nuw nsw i64 %7, 8
  %9 = getelementptr inbounds i8, ptr %.0.i, i64 2
  %10 = load i8, ptr %9, align 1
  %11 = zext i8 %10 to i64
  %12 = or disjoint i64 %8, %11
  %13 = getelementptr inbounds i8, ptr %.0.i, i64 %12
  %14 = load i8, ptr %13, align 1
  %15 = icmp eq i8 %14, 120
  br i1 %15, label %4, label %bracketend.exit

bracketend.exit:                                  ; preds = %4
  %16 = getelementptr inbounds i8, ptr %13, i64 3
  %17 = load i8, ptr %1, align 1
  %18 = add i8 %17, -127
  %or.cond58 = icmp ult i8 %18, 6
  %.047 = select i1 %or.cond58, ptr null, ptr %2
  switch i8 %17, label %20 [
    i8 -117, label %.thread
    i8 -112, label %.thread
  ]

.thread:                                          ; preds = %bracketend.exit, %bracketend.exit
  %19 = tail call fastcc ptr @next_opcode(ptr noundef %0, ptr noundef nonnull %1)
  br label %39

20:                                               ; preds = %bracketend.exit
  %21 = getelementptr inbounds i8, ptr %1, i64 1
  %22 = load i8, ptr %21, align 1
  %23 = zext i8 %22 to i64
  %24 = shl nuw nsw i64 %23, 8
  %25 = getelementptr inbounds i8, ptr %1, i64 2
  %26 = load i8, ptr %25, align 1
  %27 = zext i8 %26 to i64
  %28 = or disjoint i64 %24, %27
  %29 = getelementptr inbounds i8, ptr %1, i64 %28
  %30 = load i8, ptr %29, align 1
  %31 = icmp eq i8 %30, 120
  %32 = tail call fastcc ptr @next_opcode(ptr noundef %0, ptr noundef nonnull %1)
  br i1 %31, label %33, label %39

33:                                               ; preds = %20
  %34 = load i8, ptr %32, align 1
  switch i8 %34, label %.thread101 [
    i8 125, label %35
    i8 126, label %37
  ]

35:                                               ; preds = %33
  %36 = getelementptr inbounds i8, ptr %32, i64 3
  br label %.thread101

37:                                               ; preds = %33
  %38 = getelementptr inbounds i8, ptr %32, i64 5
  br label %.thread101

39:                                               ; preds = %.thread, %20
  %.1 = phi ptr [ %32, %20 ], [ %19, %.thread ]
  %40 = icmp ult ptr %.1, %16
  br i1 %40, label %.lr.ph, label %.outer._crit_edge

.thread101:                                       ; preds = %35, %37, %33
  %.046 = phi ptr [ %36, %35 ], [ %38, %37 ], [ %32, %33 ]
  %41 = icmp ult ptr %.046, %16
  br i1 %41, label %.lr.ph.us.preheader, label %.outer._crit_edge

.lr.ph.us.preheader:                              ; preds = %.thread101
  %42 = getelementptr inbounds i8, ptr %0, i64 48
  %43 = load ptr, ptr %42, align 8
  %44 = ptrtoint ptr %.046 to i64
  %45 = getelementptr inbounds i8, ptr %0, i64 16
  %46 = load ptr, ptr %45, align 8
  %47 = ptrtoint ptr %46 to i64
  %48 = sub i64 %44, %47
  %49 = getelementptr inbounds i8, ptr %43, i64 %48
  %50 = freeze ptr %49
  %51 = getelementptr inbounds i8, ptr %0, i64 48
  %52 = getelementptr inbounds i8, ptr %0, i64 16
  br label %.lr.ph.us

.lr.ph.us:                                        ; preds = %.lr.ph.us.preheader, %.outer.us
  %.2.ph73.us = phi ptr [ %.3.us, %.outer.us ], [ %.046, %.lr.ph.us.preheader ]
  %.249.ph72.us = phi ptr [ %71, %.outer.us ], [ %50, %.lr.ph.us.preheader ]
  %.249.ph72.us.fr = freeze ptr %.249.ph72.us
  %.not93 = icmp eq ptr %.249.ph72.us.fr, null
  br i1 %.not93, label %.lr.ph.split.us.us, label %.lr.ph.split.us81

.lr.ph.split.us81:                                ; preds = %.lr.ph.us, %75
  %.265.us74 = phi ptr [ %.4.us80, %75 ], [ %.2.ph73.us, %.lr.ph.us ]
  %53 = load i8, ptr %.265.us74, align 1
  %54 = add i8 %53, -127
  %or.cond63.us77 = icmp ult i8 %54, 18
  br i1 %or.cond63.us77, label %73, label %55

55:                                               ; preds = %.lr.ph.split.us81
  %56 = icmp eq i8 %53, 120
  br i1 %56, label %.split.us78, label %57

57:                                               ; preds = %55
  %58 = add i8 %53, 97
  %or.cond = icmp ult i8 %58, 2
  br i1 %or.cond, label %59, label %60

59:                                               ; preds = %57
  store i8 1, ptr %.249.ph72.us.fr, align 1
  br label %60

60:                                               ; preds = %59, %57
  %61 = tail call fastcc ptr @next_opcode(ptr noundef %0, ptr noundef nonnull %.265.us74)
  br label %75

62:                                               ; preds = %.split.us78
  %63 = getelementptr inbounds i8, ptr %.us-phi.us, i64 8
  br label %.outer.us

64:                                               ; preds = %.split.us78
  %65 = getelementptr inbounds i8, ptr %.us-phi.us, i64 6
  br label %.outer.us

.outer.us:                                        ; preds = %.split.us78, %64, %62
  %.3.us = phi ptr [ %65, %64 ], [ %63, %62 ], [ %77, %.split.us78 ]
  %66 = load ptr, ptr %51, align 8
  %67 = load ptr, ptr %52, align 8
  %68 = ptrtoint ptr %.3.us to i64
  %69 = ptrtoint ptr %67 to i64
  %70 = sub i64 %68, %69
  %71 = getelementptr inbounds i8, ptr %66, i64 %70
  %72 = icmp ult ptr %.3.us, %16
  br i1 %72, label %.lr.ph.us, label %.outer._crit_edge

73:                                               ; preds = %.lr.ph.split.us81
  %74 = tail call fastcc ptr @set_then_offsets(ptr noundef %0, ptr noundef nonnull %.265.us74, ptr noundef nonnull %.249.ph72.us.fr)
  br label %75

75:                                               ; preds = %73, %60
  %.4.us80 = phi ptr [ %74, %73 ], [ %61, %60 ]
  %76 = icmp ult ptr %.4.us80, %16
  br i1 %76, label %.lr.ph.split.us81, label %.outer._crit_edge

.split.us78:                                      ; preds = %55, %81
  %.us-phi.us = phi ptr [ %.265.us.us82, %81 ], [ %.265.us74, %55 ]
  %77 = getelementptr inbounds i8, ptr %.us-phi.us, i64 3
  %78 = load i8, ptr %77, align 1
  switch i8 %78, label %.outer.us [
    i8 125, label %64
    i8 126, label %62
  ]

.lr.ph.split.us.us:                               ; preds = %.lr.ph.us, %87
  %.265.us.us82 = phi ptr [ %.4.us.us86, %87 ], [ %.2.ph73.us, %.lr.ph.us ]
  %79 = load i8, ptr %.265.us.us82, align 1
  %80 = add i8 %79, -127
  %or.cond63.us.us85 = icmp ult i8 %80, 18
  br i1 %or.cond63.us.us85, label %85, label %81

81:                                               ; preds = %.lr.ph.split.us.us
  %82 = icmp eq i8 %79, 120
  br i1 %82, label %.split.us78, label %83

83:                                               ; preds = %81
  %84 = tail call fastcc ptr @next_opcode(ptr noundef %0, ptr noundef nonnull %.265.us.us82)
  br label %87

85:                                               ; preds = %.lr.ph.split.us.us
  %86 = tail call fastcc ptr @set_then_offsets(ptr noundef %0, ptr noundef nonnull %.265.us.us82, ptr noundef null)
  br label %87

87:                                               ; preds = %85, %83
  %.4.us.us86 = phi ptr [ %86, %85 ], [ %84, %83 ]
  %88 = icmp ult ptr %.4.us.us86, %16
  br i1 %88, label %.lr.ph.split.us.us, label %.outer._crit_edge

.lr.ph:                                           ; preds = %39
  %.not = icmp eq ptr %.047, null
  br i1 %.not, label %.lr.ph.split.us.split.us, label %.lr.ph.split

.lr.ph.split.us.split.us:                         ; preds = %.lr.ph, %95
  %.265.us.us = phi ptr [ %.4.us.us, %95 ], [ %.1, %.lr.ph ]
  %89 = load i8, ptr %.265.us.us, align 1
  %90 = add i8 %89, -127
  %or.cond63.us.us = icmp ult i8 %90, 18
  br i1 %or.cond63.us.us, label %93, label %91

91:                                               ; preds = %.lr.ph.split.us.split.us
  %92 = tail call fastcc ptr @next_opcode(ptr noundef %0, ptr noundef nonnull %.265.us.us)
  br label %95

93:                                               ; preds = %.lr.ph.split.us.split.us
  %94 = tail call fastcc ptr @set_then_offsets(ptr noundef %0, ptr noundef nonnull %.265.us.us, ptr noundef null)
  br label %95

95:                                               ; preds = %93, %91
  %.4.us.us = phi ptr [ %94, %93 ], [ %92, %91 ]
  %96 = icmp ult ptr %.4.us.us, %16
  br i1 %96, label %.lr.ph.split.us.split.us, label %.outer._crit_edge

.lr.ph.split:                                     ; preds = %.lr.ph, %106
  %.265 = phi ptr [ %.4, %106 ], [ %.1, %.lr.ph ]
  %97 = load i8, ptr %.265, align 1
  %98 = add i8 %97, -127
  %or.cond63 = icmp ult i8 %98, 18
  br i1 %or.cond63, label %99, label %101

99:                                               ; preds = %.lr.ph.split
  %100 = tail call fastcc ptr @set_then_offsets(ptr noundef %0, ptr noundef nonnull %.265, ptr noundef nonnull %.047)
  br label %106

101:                                              ; preds = %.lr.ph.split
  %102 = add i8 %97, 97
  %or.cond92 = icmp ult i8 %102, 2
  br i1 %or.cond92, label %103, label %104

103:                                              ; preds = %101
  store i8 1, ptr %.047, align 1
  br label %104

104:                                              ; preds = %103, %101
  %105 = tail call fastcc ptr @next_opcode(ptr noundef %0, ptr noundef nonnull %.265)
  br label %106

106:                                              ; preds = %104, %99
  %.4 = phi ptr [ %100, %99 ], [ %105, %104 ]
  %107 = icmp ult ptr %.4, %16
  br i1 %107, label %.lr.ph.split, label %.outer._crit_edge

.outer._crit_edge:                                ; preds = %106, %95, %.outer.us, %75, %87, %.thread101, %39
  ret ptr %16
}